; Function Attrs: nounwind uwtable
define hidden i32 @mbedtls_hmac_drbg_write_seed_file(ptr noundef %0, ptr noundef readonly captures(none) %1) local_unnamed_addr #2 {
  %3 = alloca [256 x i8], align 16
  call void @llvm.lifetime.start.p0(i64 256, ptr nonnull %3) #12
  %4 = tail call noalias ptr @fopen(ptr noundef %1, ptr noundef nonnull @.str)
  %5 = icmp eq ptr %4, null
  br i1 %5, label %12, label %6

6:                                                ; preds = %2
  tail call void @setbuf(ptr noundef nonnull %4, ptr noundef null) #12
  %7 = call i32 @mbedtls_hmac_drbg_random_with_add(ptr noundef %0, ptr noundef nonnull %3, i64 noundef 256, ptr noundef null, i64 noundef 0)
  %.not = icmp eq i32 %7, 0
  br i1 %.not, label %8, label %10

8:                                                ; preds = %6
  %9 = call i64 @fwrite(ptr noundef nonnull %3, i64 noundef 1, i64 noundef 256, ptr noundef nonnull %4)
  %.not9 = icmp eq i64 %9, 256
  %. = select i1 %.not9, i32 0, i32 -7
  br label %10

10:                                               ; preds = %8, %6
  %.06 = phi i32 [ %7, %6 ], [ %., %8 ]
  %11 = tail call i32 @fclose(ptr noundef nonnull %4)
  call void @mbedtls_platform_zeroize(ptr noundef nonnull %3, i64 noundef 256) #12
  br label %12

12:                                               ; preds = %2, %10
  %.0 = phi i32 [ %.06, %10 ], [ -7, %2 ]
  call void @llvm.lifetime.end.p0(i64 256, ptr nonnull %3) #12
  ret i32 %.0
}